; ModuleID = '33/1656.c'
source_filename = "33/1656.c"
target datalayout = "e-m:e-p270:32:32-p271:32:32-p272:64:64-i64:64-f80:128-n8:16:32:64-S128"
target triple = "x86_64-pc-linux-gnu"

@.str = private unnamed_addr constant [4 x i8] c"%d\0A\00", align 1

; Function Attrs: noinline nounwind uwtable
define dso_local i32 @main() #0 {
  %1 = alloca i32, align 4
  %2 = alloca i32, align 4
  %3 = alloca i32, align 4
  %4 = alloca i8*, align 8
  %5 = alloca i64, align 8
  %6 = alloca i8*, align 8
  store i32 0, i32* %1, align 4
  %7 = call i32 (i8*, ...) @__isoc99_scanf(i8* getelementptr inbounds ([4 x i8], [4 x i8]* @.str, i64 0, i64 0), i32* %2)
  %8 = load i32, i32* %2, align 4
  %9 = zext i32 %8 to i64
  %10 = call i8* @llvm.stacksave()
  store i8* %10, i8** %4, align 8
  %11 = alloca [256 x i8], i64 %9, align 16
  store i64 %9, i64* %5, align 8
  store i32 0, i32* %3, align 4
  br label %12

12:                                               ; preds = %22, %0
  %13 = load i32, i32* %3, align 4
  %14 = load i32, i32* %2, align 4
  %15 = icmp slt i32 %13, %14
  br i1 %15, label %16, label %25

16:                                               ; preds = %12
  %17 = load i32, i32* %3, align 4
  %18 = sext i32 %17 to i64
  %19 = getelementptr inbounds [256 x i8], [256 x i8]* %11, i64 %18
  %20 = getelementptr inbounds [256 x i8], [256 x i8]* %19, i64 0, i64 0
  %21 = call i32 (i8*, ...) bitcast (i32 (...)* @gets to i32 (i8*, ...)*)(i8* %20)
  br label %22

22:                                               ; preds = %16
  %23 = load i32, i32* %3, align 4
  %24 = add nsw i32 %23, 1
  store i32 %24, i32* %3, align 4
  br label %12

25:                                               ; preds = %12
  store i32 0, i32* %3, align 4
  br label %26

26:                                               ; preds = %75, %25
  %27 = load i32, i32* %3, align 4
  %28 = load i32, i32* %2, align 4
  %29 = icmp slt i32 %27, %28
  br i1 %29, label %30, label %78

30:                                               ; preds = %26
  %31 = load i32, i32* %3, align 4
  %32 = sext i32 %31 to i64
  %33 = getelementptr inbounds [256 x i8], [256 x i8]* %11, i64 %32
  %34 = getelementptr inbounds [256 x i8], [256 x i8]* %33, i64 0, i64 0
  store i8* %34, i8** %6, align 8
  br label %35

35:                                               ; preds = %66, %30
  %36 = load i8*, i8** %6, align 8
  %37 = load i8, i8* %36, align 1
  %38 = sext i8 %37 to i32
  %39 = icmp ne i32 %38, 0
  br i1 %39, label %40, label %69

40:                                               ; preds = %35
  %41 = load i8*, i8** %6, align 8
  %42 = load i8, i8* %41, align 1
  %43 = sext i8 %42 to i32
  %44 = icmp eq i32 %43, 65
  br i1 %44, label %45, label %47

45:                                               ; preds = %40
  %46 = load i8*, i8** %6, align 8
  store i8 84, i8* %46, align 1
  br label %65

47:                                               ; preds = %40
  %48 = load i8*, i8** %6, align 8
  %49 = load i8, i8* %48, align 1
  %50 = sext i8 %49 to i32
  %51 = icmp eq i32 %50, 84
  br i1 %51, label %52, label %54

52:                                               ; preds = %47
  %53 = load i8*, i8** %6, align 8
  store i8 65, i8* %53, align 1
  br label %64

54:                                               ; preds = %47
  %55 = load i8*, i8** %6, align 8
  %56 = load i8, i8* %55, align 1
  %57 = sext i8 %56 to i32
  %58 = icmp eq i32 %57, 71
  br i1 %58, label %59, label %61

59:                                               ; preds = %54
  %60 = load i8*, i8** %6, align 8
  store i8 67, i8* %60, align 1
  br label %63

61:                                               ; preds = %54
  %62 = load i8*, i8** %6, align 8
  store i8 71, i8* %62, align 1
  br label %63

63:                                               ; preds = %61, %59
  br label %64

64:                                               ; preds = %63, %52
  br label %65

65:                                               ; preds = %64, %45
  br label %66

66:                                               ; preds = %65
  %67 = load i8*, i8** %6, align 8
  %68 = getelementptr inbounds i8, i8* %67, i32 1
  store i8* %68, i8** %6, align 8
  br label %35

69:                                               ; preds = %35
  %70 = load i32, i32* %3, align 4
  %71 = sext i32 %70 to i64
  %72 = getelementptr inbounds [256 x i8], [256 x i8]* %11, i64 %71
  %73 = getelementptr inbounds [256 x i8], [256 x i8]* %72, i64 0, i64 0
  %74 = call i32 @puts(i8* %73)
  br label %75

75:                                               ; preds = %69
  %76 = load i32, i32* %3, align 4
  %77 = add nsw i32 %76, 1
  store i32 %77, i32* %3, align 4
  br label %26

78:                                               ; preds = %26
  store i32 0, i32* %1, align 4
  %79 = load i8*, i8** %4, align 8
  call void @llvm.stackrestore(i8* %79)
  %80 = load i32, i32* %1, align 4
  ret i32 %80
}

declare dso_local i32 @__isoc99_scanf(i8*, ...) #1

; Function Attrs: nounwind
declare i8* @llvm.stacksave() #2

declare dso_local i32 @gets(...) #1

declare dso_local i32 @puts(i8*) #1

; Function Attrs: nounwind
declare void @llvm.stackrestore(i8*) #2


!llvm.module.flags = !{!0}
!llvm.ident = !{!1}

!0 = !{i32 1, !"wchar_size", i32 4}
!1 = !{!"clang version 10.0.0-4ubuntu1 "}
